
output/myOS.elf:     file format elf32-i386


Disassembly of section .text:

00007e00 <_text_start>:
    7e00:	be 64 8c 00 00       	mov    $0x8c64,%esi
    7e05:	b4 07                	mov    $0x7,%ah
    7e07:	e8 04 00 00 00       	call   7e10 <pm_print_string>
    7e0c:	eb 15                	jmp    7e23 <fun1>

00007e0e <dead>:
    7e0e:	eb fe                	jmp    7e0e <dead>

00007e10 <pm_print_string>:
    7e10:	bb 00 80 0b 00       	mov    $0xb8000,%ebx

00007e15 <pm_print_string_loop>:
    7e15:	ac                   	lods   %ds:(%esi),%al
    7e16:	20 c0                	and    %al,%al
    7e18:	74 08                	je     7e22 <pm_print_string_end>
    7e1a:	26 66 89 04 53       	mov    %ax,%es:(%ebx,%edx,2)
    7e1f:	42                   	inc    %edx
    7e20:	eb f3                	jmp    7e15 <pm_print_string_loop>

00007e22 <pm_print_string_end>:
    7e22:	c3                   	ret    

00007e23 <fun1>:
    7e23:	b8 e0 8e 00 00       	mov    $0x8ee0,%eax
    7e28:	05 00 10 00 00       	add    $0x1000,%eax
    7e2d:	83 e0 c0             	and    $0xffffffc0,%eax
    7e30:	89 c4                	mov    %eax,%esp
    7e32:	89 c5                	mov    %eax,%ebp

00007e34 <fun2>:
    7e34:	fc                   	cld    
    7e35:	b9 e0 8e 00 00       	mov    $0x8ee0,%ecx
    7e3a:	bf a0 8c 00 00       	mov    $0x8ca0,%edi
    7e3f:	29 f9                	sub    %edi,%ecx
    7e41:	d1 e9                	shr    %ecx
    7e43:	d1 e9                	shr    %ecx
    7e45:	31 c0                	xor    %eax,%eax
    7e47:	f2 ab                	repnz stos %eax,%es:(%edi)

00007e49 <to_main>:
    7e49:	be 6a 8c 00 00       	mov    $0x8c6a,%esi
    7e4e:	b4 07                	mov    $0x7,%ah
    7e50:	ba 70 03 00 00       	mov    $0x370,%edx
    7e55:	e8 b6 ff ff ff       	call   7e10 <pm_print_string>
    7e5a:	e8 d3 05 00 00       	call   8432 <myMain>

00007e5f <shut_down>:
    7e5f:	eb fe                	jmp    7e5f <shut_down>

00007e61 <prevTSK_StackPtr>:
    7e61:	00 10                	add    %dl,(%eax)
	...

00007e65 <nextTSK_StackPtr>:
    7e65:	00 20                	add    %ah,(%eax)
	...

00007e69 <CTX_SW>:
    7e69:	60                   	pusha  
    7e6a:	89 25 61 7e 00 00    	mov    %esp,0x7e61
    7e70:	8b 25 65 7e 00 00    	mov    0x7e65,%esp
    7e76:	61                   	popa   
    7e77:	c3                   	ret    

00007e78 <stack_init>:
    7e78:	55                   	push   %ebp
    7e79:	89 e5                	mov    %esp,%ebp
    7e7b:	e8 21 04 00 00       	call   82a1 <__x86.get_pc_thunk.ax>
    7e80:	05 04 0e 00 00       	add    $0xe04,%eax
    7e85:	8b 45 08             	mov    0x8(%ebp),%eax
    7e88:	8b 00                	mov    (%eax),%eax
    7e8a:	8d 48 fc             	lea    -0x4(%eax),%ecx
    7e8d:	8b 55 08             	mov    0x8(%ebp),%edx
    7e90:	89 0a                	mov    %ecx,(%edx)
    7e92:	c7 00 08 00 00 00    	movl   $0x8,(%eax)
    7e98:	8b 45 08             	mov    0x8(%ebp),%eax
    7e9b:	8b 00                	mov    (%eax),%eax
    7e9d:	8d 48 fc             	lea    -0x4(%eax),%ecx
    7ea0:	8b 55 08             	mov    0x8(%ebp),%edx
    7ea3:	89 0a                	mov    %ecx,(%edx)
    7ea5:	8b 55 0c             	mov    0xc(%ebp),%edx
    7ea8:	89 10                	mov    %edx,(%eax)
    7eaa:	8b 45 08             	mov    0x8(%ebp),%eax
    7ead:	8b 00                	mov    (%eax),%eax
    7eaf:	8d 48 fc             	lea    -0x4(%eax),%ecx
    7eb2:	8b 55 08             	mov    0x8(%ebp),%edx
    7eb5:	89 0a                	mov    %ecx,(%edx)
    7eb7:	c7 00 aa aa aa aa    	movl   $0xaaaaaaaa,(%eax)
    7ebd:	8b 45 08             	mov    0x8(%ebp),%eax
    7ec0:	8b 00                	mov    (%eax),%eax
    7ec2:	8d 48 fc             	lea    -0x4(%eax),%ecx
    7ec5:	8b 55 08             	mov    0x8(%ebp),%edx
    7ec8:	89 0a                	mov    %ecx,(%edx)
    7eca:	c7 00 cc cc cc cc    	movl   $0xcccccccc,(%eax)
    7ed0:	8b 45 08             	mov    0x8(%ebp),%eax
    7ed3:	8b 00                	mov    (%eax),%eax
    7ed5:	8d 48 fc             	lea    -0x4(%eax),%ecx
    7ed8:	8b 55 08             	mov    0x8(%ebp),%edx
    7edb:	89 0a                	mov    %ecx,(%edx)
    7edd:	c7 00 dd dd dd dd    	movl   $0xdddddddd,(%eax)
    7ee3:	8b 45 08             	mov    0x8(%ebp),%eax
    7ee6:	8b 00                	mov    (%eax),%eax
    7ee8:	8d 48 fc             	lea    -0x4(%eax),%ecx
    7eeb:	8b 55 08             	mov    0x8(%ebp),%edx
    7eee:	89 0a                	mov    %ecx,(%edx)
    7ef0:	c7 00 bb bb bb bb    	movl   $0xbbbbbbbb,(%eax)
    7ef6:	8b 45 08             	mov    0x8(%ebp),%eax
    7ef9:	8b 00                	mov    (%eax),%eax
    7efb:	8d 48 fc             	lea    -0x4(%eax),%ecx
    7efe:	8b 55 08             	mov    0x8(%ebp),%edx
    7f01:	89 0a                	mov    %ecx,(%edx)
    7f03:	c7 00 44 44 44 44    	movl   $0x44444444,(%eax)
    7f09:	8b 45 08             	mov    0x8(%ebp),%eax
    7f0c:	8b 00                	mov    (%eax),%eax
    7f0e:	8d 48 fc             	lea    -0x4(%eax),%ecx
    7f11:	8b 55 08             	mov    0x8(%ebp),%edx
    7f14:	89 0a                	mov    %ecx,(%edx)
    7f16:	c7 00 55 55 55 55    	movl   $0x55555555,(%eax)
    7f1c:	8b 45 08             	mov    0x8(%ebp),%eax
    7f1f:	8b 00                	mov    (%eax),%eax
    7f21:	8d 48 fc             	lea    -0x4(%eax),%ecx
    7f24:	8b 55 08             	mov    0x8(%ebp),%edx
    7f27:	89 0a                	mov    %ecx,(%edx)
    7f29:	c7 00 66 66 66 66    	movl   $0x66666666,(%eax)
    7f2f:	8b 45 08             	mov    0x8(%ebp),%eax
    7f32:	8b 00                	mov    (%eax),%eax
    7f34:	c7 00 77 77 77 77    	movl   $0x77777777,(%eax)
    7f3a:	90                   	nop
    7f3b:	5d                   	pop    %ebp
    7f3c:	c3                   	ret    

00007f3d <tskStart>:
    7f3d:	55                   	push   %ebp
    7f3e:	89 e5                	mov    %esp,%ebp
    7f40:	e8 5c 03 00 00       	call   82a1 <__x86.get_pc_thunk.ax>
    7f45:	05 3f 0d 00 00       	add    $0xd3f,%eax
    7f4a:	8b 45 08             	mov    0x8(%ebp),%eax
    7f4d:	c6 00 01             	movb   $0x1,(%eax)
    7f50:	90                   	nop
    7f51:	5d                   	pop    %ebp
    7f52:	c3                   	ret    

00007f53 <destroyTsk>:
    7f53:	55                   	push   %ebp
    7f54:	89 e5                	mov    %esp,%ebp
    7f56:	e8 46 03 00 00       	call   82a1 <__x86.get_pc_thunk.ax>
    7f5b:	05 29 0d 00 00       	add    $0xd29,%eax
    7f60:	c7 c0 c0 8c 00 00    	mov    $0x8cc0,%eax
    7f66:	8b 40 04             	mov    0x4(%eax),%eax
    7f69:	c6 00 00             	movb   $0x0,(%eax)
    7f6c:	90                   	nop
    7f6d:	5d                   	pop    %ebp
    7f6e:	c3                   	ret    

00007f6f <schedule>:
    7f6f:	55                   	push   %ebp
    7f70:	89 e5                	mov    %esp,%ebp
    7f72:	53                   	push   %ebx
    7f73:	83 ec 14             	sub    $0x14,%esp
    7f76:	e8 2a 03 00 00       	call   82a5 <__x86.get_pc_thunk.bx>
    7f7b:	81 c3 09 0d 00 00    	add    $0xd09,%ebx
    7f81:	c7 c0 c0 8c 00 00    	mov    $0x8cc0,%eax
    7f87:	8b 40 04             	mov    0x4(%eax),%eax
    7f8a:	85 c0                	test   %eax,%eax
    7f8c:	74 56                	je     7fe4 <schedule+0x75>
    7f8e:	c7 c0 c0 8c 00 00    	mov    $0x8cc0,%eax
    7f94:	8b 40 04             	mov    0x4(%eax),%eax
    7f97:	0f b6 00             	movzbl (%eax),%eax
    7f9a:	3c 01                	cmp    $0x1,%al
    7f9c:	75 46                	jne    7fe4 <schedule+0x75>
    7f9e:	c7 c0 c0 8c 00 00    	mov    $0x8cc0,%eax
    7fa4:	8b 40 04             	mov    0x4(%eax),%eax
    7fa7:	c6 00 02             	movb   $0x2,(%eax)
    7faa:	c7 c0 c0 8c 00 00    	mov    $0x8cc0,%eax
    7fb0:	8b 40 04             	mov    0x4(%eax),%eax
    7fb3:	8b 40 04             	mov    0x4(%eax),%eax
    7fb6:	89 45 f4             	mov    %eax,-0xc(%ebp)
    7fb9:	c7 c0 c0 8c 00 00    	mov    $0x8cc0,%eax
    7fbf:	8b 40 04             	mov    0x4(%eax),%eax
    7fc2:	8b 50 14             	mov    0x14(%eax),%edx
    7fc5:	c7 c0 65 7e 00 00    	mov    $0x7e65,%eax
    7fcb:	89 10                	mov    %edx,(%eax)
    7fcd:	ff 75 f4             	pushl  -0xc(%ebp)
    7fd0:	c7 c0 65 7e 00 00    	mov    $0x7e65,%eax
    7fd6:	50                   	push   %eax
    7fd7:	e8 9c fe ff ff       	call   7e78 <stack_init>
    7fdc:	83 c4 08             	add    $0x8,%esp
    7fdf:	e8 85 fe ff ff       	call   7e69 <CTX_SW>
    7fe4:	90                   	nop
    7fe5:	8b 5d fc             	mov    -0x4(%ebp),%ebx
    7fe8:	c9                   	leave  
    7fe9:	c3                   	ret    

00007fea <idleTskBody>:
    7fea:	55                   	push   %ebp
    7feb:	89 e5                	mov    %esp,%ebp
    7fed:	83 ec 08             	sub    $0x8,%esp
    7ff0:	e8 ac 02 00 00       	call   82a1 <__x86.get_pc_thunk.ax>
    7ff5:	05 8f 0c 00 00       	add    $0xc8f,%eax
    7ffa:	e8 70 ff ff ff       	call   7f6f <schedule>
    7fff:	eb f9                	jmp    7ffa <idleTskBody+0x10>

00008001 <osStart>:
    8001:	55                   	push   %ebp
    8002:	89 e5                	mov    %esp,%ebp
    8004:	53                   	push   %ebx
    8005:	83 ec 14             	sub    $0x14,%esp
    8008:	e8 98 02 00 00       	call   82a5 <__x86.get_pc_thunk.bx>
    800d:	81 c3 77 0c 00 00    	add    $0xc77,%ebx
    8013:	c7 45 f4 00 00 00 00 	movl   $0x0,-0xc(%ebp)
    801a:	c7 c0 c0 8c 00 00    	mov    $0x8cc0,%eax
    8020:	c7 40 04 00 00 00 00 	movl   $0x0,0x4(%eax)
    8027:	c7 c0 c0 8c 00 00    	mov    $0x8cc0,%eax
    802d:	c7 40 08 00 00 00 00 	movl   $0x0,0x8(%eax)
    8034:	83 ec 0c             	sub    $0xc,%esp
    8037:	c7 c0 a1 87 00 00    	mov    $0x87a1,%eax
    803d:	50                   	push   %eax
    803e:	e8 39 00 00 00       	call   807c <createTsk>
    8043:	83 c4 10             	add    $0x10,%esp
    8046:	83 ec 0c             	sub    $0xc,%esp
    8049:	8d 83 66 f3 ff ff    	lea    -0xc9a(%ebx),%eax
    804f:	50                   	push   %eax
    8050:	e8 27 00 00 00       	call   807c <createTsk>
    8055:	83 c4 10             	add    $0x10,%esp
    8058:	83 ec 08             	sub    $0x8,%esp
    805b:	c7 c0 a1 87 00 00    	mov    $0x87a1,%eax
    8061:	50                   	push   %eax
    8062:	c7 c0 65 7e 00 00    	mov    $0x7e65,%eax
    8068:	50                   	push   %eax
    8069:	e8 0a fe ff ff       	call   7e78 <stack_init>
    806e:	83 c4 10             	add    $0x10,%esp
    8071:	e8 f3 fd ff ff       	call   7e69 <CTX_SW>
    8076:	90                   	nop
    8077:	8b 5d fc             	mov    -0x4(%ebp),%ebx
    807a:	c9                   	leave  
    807b:	c3                   	ret    

0000807c <createTsk>:
    807c:	55                   	push   %ebp
    807d:	89 e5                	mov    %esp,%ebp
    807f:	53                   	push   %ebx
    8080:	83 ec 14             	sub    $0x14,%esp
    8083:	e8 1d 02 00 00       	call   82a5 <__x86.get_pc_thunk.bx>
    8088:	81 c3 fc 0b 00 00    	add    $0xbfc,%ebx
    808e:	c7 c0 e0 8c 00 00    	mov    $0x8ce0,%eax
    8094:	89 45 f4             	mov    %eax,-0xc(%ebp)
    8097:	eb 0e                	jmp    80a7 <createTsk+0x2b>
    8099:	8b 45 f4             	mov    -0xc(%ebp),%eax
    809c:	0f b6 00             	movzbl (%eax),%eax
    809f:	84 c0                	test   %al,%al
    80a1:	74 17                	je     80ba <createTsk+0x3e>
    80a3:	83 45 f4 20          	addl   $0x20,-0xc(%ebp)
    80a7:	c7 c0 e0 8c 00 00    	mov    $0x8ce0,%eax
    80ad:	8d 80 e0 01 00 00    	lea    0x1e0(%eax),%eax
    80b3:	39 45 f4             	cmp    %eax,-0xc(%ebp)
    80b6:	76 e1                	jbe    8099 <createTsk+0x1d>
    80b8:	eb 01                	jmp    80bb <createTsk+0x3f>
    80ba:	90                   	nop
    80bb:	c7 c0 e0 8c 00 00    	mov    $0x8ce0,%eax
    80c1:	8d 80 00 02 00 00    	lea    0x200(%eax),%eax
    80c7:	39 45 f4             	cmp    %eax,-0xc(%ebp)
    80ca:	75 12                	jne    80de <createTsk+0x62>
    80cc:	83 ec 0c             	sub    $0xc,%esp
    80cf:	8d 83 18 fc ff ff    	lea    -0x3e8(%ebx),%eax
    80d5:	50                   	push   %eax
    80d6:	e8 33 03 00 00       	call   840e <panic>
    80db:	83 c4 10             	add    $0x10,%esp
    80de:	8b 45 f4             	mov    -0xc(%ebp),%eax
    80e1:	c6 00 ff             	movb   $0xff,(%eax)
    80e4:	8b 45 f4             	mov    -0xc(%ebp),%eax
    80e7:	8b 55 08             	mov    0x8(%ebp),%edx
    80ea:	89 50 04             	mov    %edx,0x4(%eax)
    80ed:	8b 83 1c 00 00 00    	mov    0x1c(%ebx),%eax
    80f3:	89 c2                	mov    %eax,%edx
    80f5:	8b 45 f4             	mov    -0xc(%ebp),%eax
    80f8:	89 50 14             	mov    %edx,0x14(%eax)
    80fb:	8b 83 1c 00 00 00    	mov    0x1c(%ebx),%eax
    8101:	05 f4 01 00 00       	add    $0x1f4,%eax
    8106:	89 83 1c 00 00 00    	mov    %eax,0x1c(%ebx)
    810c:	8b 83 1c 00 00 00    	mov    0x1c(%ebx),%eax
    8112:	0f b7 c0             	movzwl %ax,%eax
    8115:	89 83 1c 00 00 00    	mov    %eax,0x1c(%ebx)
    811b:	c7 c0 c0 8c 00 00    	mov    $0x8cc0,%eax
    8121:	8b 00                	mov    (%eax),%eax
    8123:	8d 50 01             	lea    0x1(%eax),%edx
    8126:	c7 c0 c0 8c 00 00    	mov    $0x8cc0,%eax
    812c:	89 10                	mov    %edx,(%eax)
    812e:	c7 c0 c0 8c 00 00    	mov    $0x8cc0,%eax
    8134:	8b 40 04             	mov    0x4(%eax),%eax
    8137:	85 c0                	test   %eax,%eax
    8139:	75 2a                	jne    8165 <createTsk+0xe9>
    813b:	c7 c0 c0 8c 00 00    	mov    $0x8cc0,%eax
    8141:	8b 55 f4             	mov    -0xc(%ebp),%edx
    8144:	89 50 04             	mov    %edx,0x4(%eax)
    8147:	8b 45 f4             	mov    -0xc(%ebp),%eax
    814a:	c7 40 18 00 00 00 00 	movl   $0x0,0x18(%eax)
    8151:	c7 c0 c0 8c 00 00    	mov    $0x8cc0,%eax
    8157:	8b 50 08             	mov    0x8(%eax),%edx
    815a:	8b 45 f4             	mov    -0xc(%ebp),%eax
    815d:	89 50 1c             	mov    %edx,0x1c(%eax)
    8160:	e9 8b 00 00 00       	jmp    81f0 <createTsk+0x174>
    8165:	c7 c0 c0 8c 00 00    	mov    $0x8cc0,%eax
    816b:	8b 40 08             	mov    0x8(%eax),%eax
    816e:	85 c0                	test   %eax,%eax
    8170:	75 3c                	jne    81ae <createTsk+0x132>
    8172:	c7 c0 c0 8c 00 00    	mov    $0x8cc0,%eax
    8178:	8b 55 f4             	mov    -0xc(%ebp),%edx
    817b:	89 50 08             	mov    %edx,0x8(%eax)
    817e:	c7 c0 c0 8c 00 00    	mov    $0x8cc0,%eax
    8184:	8b 40 04             	mov    0x4(%eax),%eax
    8187:	c7 c2 c0 8c 00 00    	mov    $0x8cc0,%edx
    818d:	8b 52 08             	mov    0x8(%edx),%edx
    8190:	89 50 1c             	mov    %edx,0x1c(%eax)
    8193:	c7 c0 c0 8c 00 00    	mov    $0x8cc0,%eax
    8199:	8b 50 04             	mov    0x4(%eax),%edx
    819c:	8b 45 f4             	mov    -0xc(%ebp),%eax
    819f:	89 50 18             	mov    %edx,0x18(%eax)
    81a2:	8b 45 f4             	mov    -0xc(%ebp),%eax
    81a5:	c7 40 1c 00 00 00 00 	movl   $0x0,0x1c(%eax)
    81ac:	eb 42                	jmp    81f0 <createTsk+0x174>
    81ae:	c7 c0 c0 8c 00 00    	mov    $0x8cc0,%eax
    81b4:	8b 40 08             	mov    0x8(%eax),%eax
    81b7:	8b 40 18             	mov    0x18(%eax),%eax
    81ba:	8b 55 f4             	mov    -0xc(%ebp),%edx
    81bd:	89 50 1c             	mov    %edx,0x1c(%eax)
    81c0:	c7 c0 c0 8c 00 00    	mov    $0x8cc0,%eax
    81c6:	8b 40 08             	mov    0x8(%eax),%eax
    81c9:	8b 55 f4             	mov    -0xc(%ebp),%edx
    81cc:	89 50 18             	mov    %edx,0x18(%eax)
    81cf:	c7 c0 c0 8c 00 00    	mov    $0x8cc0,%eax
    81d5:	8b 40 08             	mov    0x8(%eax),%eax
    81d8:	8b 50 18             	mov    0x18(%eax),%edx
    81db:	8b 45 f4             	mov    -0xc(%ebp),%eax
    81de:	89 50 18             	mov    %edx,0x18(%eax)
    81e1:	c7 c0 c0 8c 00 00    	mov    $0x8cc0,%eax
    81e7:	8b 50 08             	mov    0x8(%eax),%edx
    81ea:	8b 45 f4             	mov    -0xc(%ebp),%eax
    81ed:	89 50 1c             	mov    %edx,0x1c(%eax)
    81f0:	83 ec 0c             	sub    $0xc,%esp
    81f3:	ff 75 f4             	pushl  -0xc(%ebp)
    81f6:	e8 42 fd ff ff       	call   7f3d <tskStart>
    81fb:	83 c4 10             	add    $0x10,%esp
    81fe:	b8 00 00 00 00       	mov    $0x0,%eax
    8203:	8b 5d fc             	mov    -0x4(%ebp),%ebx
    8206:	c9                   	leave  
    8207:	c3                   	ret    

00008208 <tskEnd>:
    8208:	55                   	push   %ebp
    8209:	89 e5                	mov    %esp,%ebp
    820b:	53                   	push   %ebx
    820c:	83 ec 04             	sub    $0x4,%esp
    820f:	e8 91 00 00 00       	call   82a5 <__x86.get_pc_thunk.bx>
    8214:	81 c3 70 0a 00 00    	add    $0xa70,%ebx
    821a:	e8 34 fd ff ff       	call   7f53 <destroyTsk>
    821f:	c7 c0 c0 8c 00 00    	mov    $0x8cc0,%eax
    8225:	8b 40 04             	mov    0x4(%eax),%eax
    8228:	8b 50 14             	mov    0x14(%eax),%edx
    822b:	c7 c0 61 7e 00 00    	mov    $0x7e61,%eax
    8231:	89 10                	mov    %edx,(%eax)
    8233:	c7 c0 c0 8c 00 00    	mov    $0x8cc0,%eax
    8239:	8b 40 04             	mov    0x4(%eax),%eax
    823c:	85 c0                	test   %eax,%eax
    823e:	74 2a                	je     826a <tskEnd+0x62>
    8240:	c7 c0 c0 8c 00 00    	mov    $0x8cc0,%eax
    8246:	8b 40 04             	mov    0x4(%eax),%eax
    8249:	8b 50 1c             	mov    0x1c(%eax),%edx
    824c:	c7 c0 c0 8c 00 00    	mov    $0x8cc0,%eax
    8252:	89 50 04             	mov    %edx,0x4(%eax)
    8255:	c7 c0 c0 8c 00 00    	mov    $0x8cc0,%eax
    825b:	8b 00                	mov    (%eax),%eax
    825d:	8d 50 ff             	lea    -0x1(%eax),%edx
    8260:	c7 c0 c0 8c 00 00    	mov    $0x8cc0,%eax
    8266:	89 10                	mov    %edx,(%eax)
    8268:	eb 12                	jmp    827c <tskEnd+0x74>
    826a:	83 ec 0c             	sub    $0xc,%esp
    826d:	8d 83 2c fc ff ff    	lea    -0x3d4(%ebx),%eax
    8273:	50                   	push   %eax
    8274:	e8 95 01 00 00       	call   840e <panic>
    8279:	83 c4 10             	add    $0x10,%esp
    827c:	c7 c0 c0 8c 00 00    	mov    $0x8cc0,%eax
    8282:	8b 40 04             	mov    0x4(%eax),%eax
    8285:	85 c0                	test   %eax,%eax
    8287:	75 0d                	jne    8296 <tskEnd+0x8e>
    8289:	c7 c0 c0 8c 00 00    	mov    $0x8cc0,%eax
    828f:	c7 40 08 00 00 00 00 	movl   $0x0,0x8(%eax)
    8296:	e8 d4 fc ff ff       	call   7f6f <schedule>
    829b:	90                   	nop
    829c:	8b 5d fc             	mov    -0x4(%ebp),%ebx
    829f:	c9                   	leave  
    82a0:	c3                   	ret    

000082a1 <__x86.get_pc_thunk.ax>:
    82a1:	8b 04 24             	mov    (%esp),%eax
    82a4:	c3                   	ret    

000082a5 <__x86.get_pc_thunk.bx>:
    82a5:	8b 1c 24             	mov    (%esp),%ebx
    82a8:	c3                   	ret    

000082a9 <clear_screen>:
    82a9:	55                   	push   %ebp
    82aa:	89 e5                	mov    %esp,%ebp
    82ac:	83 ec 10             	sub    $0x10,%esp
    82af:	e8 ed ff ff ff       	call   82a1 <__x86.get_pc_thunk.ax>
    82b4:	05 d0 09 00 00       	add    $0x9d0,%eax
    82b9:	c7 45 f4 00 80 0b 00 	movl   $0xb8000,-0xc(%ebp)
    82c0:	c7 45 fc 00 00 00 00 	movl   $0x0,-0x4(%ebp)
    82c7:	eb 3c                	jmp    8305 <clear_screen+0x5c>
    82c9:	c7 45 f8 00 00 00 00 	movl   $0x0,-0x8(%ebp)
    82d0:	eb 20                	jmp    82f2 <clear_screen+0x49>
    82d2:	8b 55 f4             	mov    -0xc(%ebp),%edx
    82d5:	8d 4a 02             	lea    0x2(%edx),%ecx
    82d8:	89 4d f4             	mov    %ecx,-0xc(%ebp)
    82db:	66 c7 02 00 00       	movw   $0x0,(%edx)
    82e0:	8b 55 f4             	mov    -0xc(%ebp),%edx
    82e3:	8d 4a 02             	lea    0x2(%edx),%ecx
    82e6:	89 4d f4             	mov    %ecx,-0xc(%ebp)
    82e9:	66 c7 02 07 00       	movw   $0x7,(%edx)
    82ee:	83 45 f8 01          	addl   $0x1,-0x8(%ebp)
    82f2:	0f b7 90 f8 ff ff ff 	movzwl -0x8(%eax),%edx
    82f9:	0f b7 d2             	movzwl %dx,%edx
    82fc:	3b 55 f8             	cmp    -0x8(%ebp),%edx
    82ff:	7f d1                	jg     82d2 <clear_screen+0x29>
    8301:	83 45 fc 01          	addl   $0x1,-0x4(%ebp)
    8305:	0f b7 90 f6 ff ff ff 	movzwl -0xa(%eax),%edx
    830c:	0f b7 d2             	movzwl %dx,%edx
    830f:	3b 55 fc             	cmp    -0x4(%ebp),%edx
    8312:	7f b5                	jg     82c9 <clear_screen+0x20>
    8314:	90                   	nop
    8315:	c9                   	leave  
    8316:	c3                   	ret    

00008317 <put_char>:
    8317:	55                   	push   %ebp
    8318:	89 e5                	mov    %esp,%ebp
    831a:	83 ec 18             	sub    $0x18,%esp
    831d:	e8 7f ff ff ff       	call   82a1 <__x86.get_pc_thunk.ax>
    8322:	05 62 09 00 00       	add    $0x962,%eax
    8327:	8b 55 08             	mov    0x8(%ebp),%edx
    832a:	8b 45 0c             	mov    0xc(%ebp),%eax
    832d:	88 55 ec             	mov    %dl,-0x14(%ebp)
    8330:	88 45 e8             	mov    %al,-0x18(%ebp)
    8333:	c7 45 fc 00 80 0b 00 	movl   $0xb8000,-0x4(%ebp)
    833a:	8b 55 10             	mov    0x10(%ebp),%edx
    833d:	89 d0                	mov    %edx,%eax
    833f:	c1 e0 02             	shl    $0x2,%eax
    8342:	01 d0                	add    %edx,%eax
    8344:	c1 e0 04             	shl    $0x4,%eax
    8347:	89 c2                	mov    %eax,%edx
    8349:	8b 45 14             	mov    0x14(%ebp),%eax
    834c:	01 d0                	add    %edx,%eax
    834e:	01 c0                	add    %eax,%eax
    8350:	89 c2                	mov    %eax,%edx
    8352:	8b 45 fc             	mov    -0x4(%ebp),%eax
    8355:	01 c2                	add    %eax,%edx
    8357:	0f b6 45 ec          	movzbl -0x14(%ebp),%eax
    835b:	88 02                	mov    %al,(%edx)
    835d:	8b 55 10             	mov    0x10(%ebp),%edx
    8360:	89 d0                	mov    %edx,%eax
    8362:	c1 e0 02             	shl    $0x2,%eax
    8365:	01 d0                	add    %edx,%eax
    8367:	c1 e0 04             	shl    $0x4,%eax
    836a:	89 c2                	mov    %eax,%edx
    836c:	8b 45 14             	mov    0x14(%ebp),%eax
    836f:	01 d0                	add    %edx,%eax
    8371:	01 c0                	add    %eax,%eax
    8373:	8d 50 01             	lea    0x1(%eax),%edx
    8376:	8b 45 fc             	mov    -0x4(%ebp),%eax
    8379:	01 c2                	add    %eax,%edx
    837b:	0f b6 45 e8          	movzbl -0x18(%ebp),%eax
    837f:	88 02                	mov    %al,(%edx)
    8381:	90                   	nop
    8382:	c9                   	leave  
    8383:	c3                   	ret    

00008384 <put_chars>:
    8384:	55                   	push   %ebp
    8385:	89 e5                	mov    %esp,%ebp
    8387:	83 ec 14             	sub    $0x14,%esp
    838a:	e8 12 ff ff ff       	call   82a1 <__x86.get_pc_thunk.ax>
    838f:	05 f5 08 00 00       	add    $0x8f5,%eax
    8394:	8b 45 0c             	mov    0xc(%ebp),%eax
    8397:	88 45 ec             	mov    %al,-0x14(%ebp)
    839a:	8b 45 08             	mov    0x8(%ebp),%eax
    839d:	89 45 fc             	mov    %eax,-0x4(%ebp)
    83a0:	8b 45 10             	mov    0x10(%ebp),%eax
    83a3:	8b 00                	mov    (%eax),%eax
    83a5:	89 45 f4             	mov    %eax,-0xc(%ebp)
    83a8:	8b 45 14             	mov    0x14(%ebp),%eax
    83ab:	8b 00                	mov    (%eax),%eax
    83ad:	89 45 f0             	mov    %eax,-0x10(%ebp)
    83b0:	8b 45 fc             	mov    -0x4(%ebp),%eax
    83b3:	0f b6 00             	movzbl (%eax),%eax
    83b6:	88 45 fb             	mov    %al,-0x5(%ebp)
    83b9:	eb 4a                	jmp    8405 <put_chars+0x81>
    83bb:	83 7d f0 50          	cmpl   $0x50,-0x10(%ebp)
    83bf:	75 0b                	jne    83cc <put_chars+0x48>
    83c1:	c7 45 f0 00 00 00 00 	movl   $0x0,-0x10(%ebp)
    83c8:	83 45 f4 01          	addl   $0x1,-0xc(%ebp)
    83cc:	83 7d f4 19          	cmpl   $0x19,-0xc(%ebp)
    83d0:	75 07                	jne    83d9 <put_chars+0x55>
    83d2:	c7 45 f4 00 00 00 00 	movl   $0x0,-0xc(%ebp)
    83d9:	8b 45 f0             	mov    -0x10(%ebp),%eax
    83dc:	8d 50 01             	lea    0x1(%eax),%edx
    83df:	89 55 f0             	mov    %edx,-0x10(%ebp)
    83e2:	0f be 4d ec          	movsbl -0x14(%ebp),%ecx
    83e6:	0f be 55 fb          	movsbl -0x5(%ebp),%edx
    83ea:	50                   	push   %eax
    83eb:	ff 75 f4             	pushl  -0xc(%ebp)
    83ee:	51                   	push   %ecx
    83ef:	52                   	push   %edx
    83f0:	e8 22 ff ff ff       	call   8317 <put_char>
    83f5:	83 c4 10             	add    $0x10,%esp
    83f8:	83 45 fc 01          	addl   $0x1,-0x4(%ebp)
    83fc:	8b 45 fc             	mov    -0x4(%ebp),%eax
    83ff:	0f b6 00             	movzbl (%eax),%eax
    8402:	88 45 fb             	mov    %al,-0x5(%ebp)
    8405:	80 7d fb 00          	cmpb   $0x0,-0x5(%ebp)
    8409:	75 b0                	jne    83bb <put_chars+0x37>
    840b:	90                   	nop
    840c:	c9                   	leave  
    840d:	c3                   	ret    

0000840e <panic>:
    840e:	55                   	push   %ebp
    840f:	89 e5                	mov    %esp,%ebp
    8411:	e8 8b fe ff ff       	call   82a1 <__x86.get_pc_thunk.ax>
    8416:	05 6e 08 00 00       	add    $0x86e,%eax
    841b:	8b 45 08             	mov    0x8(%ebp),%eax
    841e:	0f be c0             	movsbl %al,%eax
    8421:	6a 00                	push   $0x0
    8423:	6a 00                	push   $0x0
    8425:	6a 0c                	push   $0xc
    8427:	50                   	push   %eax
    8428:	e8 ea fe ff ff       	call   8317 <put_char>
    842d:	83 c4 10             	add    $0x10,%esp
    8430:	eb fe                	jmp    8430 <panic+0x22>

00008432 <myMain>:
    8432:	55                   	push   %ebp
    8433:	89 e5                	mov    %esp,%ebp
    8435:	53                   	push   %ebx
    8436:	83 ec 14             	sub    $0x14,%esp
    8439:	e8 67 fe ff ff       	call   82a5 <__x86.get_pc_thunk.bx>
    843e:	81 c3 46 08 00 00    	add    $0x846,%ebx
    8444:	c7 45 ec 00 00 00 00 	movl   $0x0,-0x14(%ebp)
    844b:	c7 45 e8 00 00 00 00 	movl   $0x0,-0x18(%ebp)
    8452:	8d 83 58 fc ff ff    	lea    -0x3a8(%ebx),%eax
    8458:	89 45 f4             	mov    %eax,-0xc(%ebp)
    845b:	8d 83 7c fc ff ff    	lea    -0x384(%ebx),%eax
    8461:	89 45 f0             	mov    %eax,-0x10(%ebp)
    8464:	e8 40 fe ff ff       	call   82a9 <clear_screen>
    8469:	c7 45 ec 00 00 00 00 	movl   $0x0,-0x14(%ebp)
    8470:	c7 45 e8 04 00 00 00 	movl   $0x4,-0x18(%ebp)
    8477:	8d 45 e8             	lea    -0x18(%ebp),%eax
    847a:	50                   	push   %eax
    847b:	8d 45 ec             	lea    -0x14(%ebp),%eax
    847e:	50                   	push   %eax
    847f:	6a 07                	push   $0x7
    8481:	ff 75 f4             	pushl  -0xc(%ebp)
    8484:	e8 fb fe ff ff       	call   8384 <put_chars>
    8489:	83 c4 10             	add    $0x10,%esp
    848c:	8b 45 ec             	mov    -0x14(%ebp),%eax
    848f:	83 c0 01             	add    $0x1,%eax
    8492:	89 45 ec             	mov    %eax,-0x14(%ebp)
    8495:	c7 45 e8 04 00 00 00 	movl   $0x4,-0x18(%ebp)
    849c:	8d 45 e8             	lea    -0x18(%ebp),%eax
    849f:	50                   	push   %eax
    84a0:	8d 45 ec             	lea    -0x14(%ebp),%eax
    84a3:	50                   	push   %eax
    84a4:	6a 07                	push   $0x7
    84a6:	ff 75 f0             	pushl  -0x10(%ebp)
    84a9:	e8 d6 fe ff ff       	call   8384 <put_chars>
    84ae:	83 c4 10             	add    $0x10,%esp
    84b1:	8b 45 ec             	mov    -0x14(%ebp),%eax
    84b4:	83 c0 01             	add    $0x1,%eax
    84b7:	89 45 ec             	mov    %eax,-0x14(%ebp)
    84ba:	c7 45 e8 04 00 00 00 	movl   $0x4,-0x18(%ebp)
    84c1:	8d 45 e8             	lea    -0x18(%ebp),%eax
    84c4:	50                   	push   %eax
    84c5:	8d 45 ec             	lea    -0x14(%ebp),%eax
    84c8:	50                   	push   %eax
    84c9:	6a 07                	push   $0x7
    84cb:	ff 75 f4             	pushl  -0xc(%ebp)
    84ce:	e8 b1 fe ff ff       	call   8384 <put_chars>
    84d3:	83 c4 10             	add    $0x10,%esp
    84d6:	e8 26 fb ff ff       	call   8001 <osStart>
    84db:	c7 45 ec 08 00 00 00 	movl   $0x8,-0x14(%ebp)
    84e2:	c7 45 e8 04 00 00 00 	movl   $0x4,-0x18(%ebp)
    84e9:	8d 45 e8             	lea    -0x18(%ebp),%eax
    84ec:	50                   	push   %eax
    84ed:	8d 45 ec             	lea    -0x14(%ebp),%eax
    84f0:	50                   	push   %eax
    84f1:	6a 07                	push   $0x7
    84f3:	ff 75 f4             	pushl  -0xc(%ebp)
    84f6:	e8 89 fe ff ff       	call   8384 <put_chars>
    84fb:	83 c4 10             	add    $0x10,%esp
    84fe:	8b 45 ec             	mov    -0x14(%ebp),%eax
    8501:	83 c0 01             	add    $0x1,%eax
    8504:	89 45 ec             	mov    %eax,-0x14(%ebp)
    8507:	c7 45 e8 04 00 00 00 	movl   $0x4,-0x18(%ebp)
    850e:	8d 45 e8             	lea    -0x18(%ebp),%eax
    8511:	50                   	push   %eax
    8512:	8d 45 ec             	lea    -0x14(%ebp),%eax
    8515:	50                   	push   %eax
    8516:	6a 07                	push   $0x7
    8518:	ff 75 f0             	pushl  -0x10(%ebp)
    851b:	e8 64 fe ff ff       	call   8384 <put_chars>
    8520:	83 c4 10             	add    $0x10,%esp
    8523:	8b 45 ec             	mov    -0x14(%ebp),%eax
    8526:	83 c0 01             	add    $0x1,%eax
    8529:	89 45 ec             	mov    %eax,-0x14(%ebp)
    852c:	c7 45 e8 04 00 00 00 	movl   $0x4,-0x18(%ebp)
    8533:	8d 45 e8             	lea    -0x18(%ebp),%eax
    8536:	50                   	push   %eax
    8537:	8d 45 ec             	lea    -0x14(%ebp),%eax
    853a:	50                   	push   %eax
    853b:	6a 07                	push   $0x7
    853d:	ff 75 f4             	pushl  -0xc(%ebp)
    8540:	e8 3f fe ff ff       	call   8384 <put_chars>
    8545:	83 c4 10             	add    $0x10,%esp
    8548:	b8 00 00 00 00       	mov    $0x0,%eax
    854d:	8b 5d fc             	mov    -0x4(%ebp),%ebx
    8550:	c9                   	leave  
    8551:	c3                   	ret    

00008552 <myTSK0>:
    8552:	55                   	push   %ebp
    8553:	89 e5                	mov    %esp,%ebp
    8555:	53                   	push   %ebx
    8556:	83 ec 14             	sub    $0x14,%esp
    8559:	e8 47 fd ff ff       	call   82a5 <__x86.get_pc_thunk.bx>
    855e:	81 c3 26 07 00 00    	add    $0x726,%ebx
    8564:	8d 83 c4 fc ff ff    	lea    -0x33c(%ebx),%eax
    856a:	89 45 f4             	mov    %eax,-0xc(%ebp)
    856d:	c7 83 20 00 00 00 08 	movl   $0x8,0x20(%ebx)
    8574:	00 00 00 
    8577:	c7 83 24 00 00 00 04 	movl   $0x4,0x24(%ebx)
    857e:	00 00 00 
    8581:	8b 83 fc ff ff ff    	mov    -0x4(%ebx),%eax
    8587:	8d 93 24 00 00 00    	lea    0x24(%ebx),%edx
    858d:	52                   	push   %edx
    858e:	8d 93 20 00 00 00    	lea    0x20(%ebx),%edx
    8594:	52                   	push   %edx
    8595:	6a 07                	push   $0x7
    8597:	50                   	push   %eax
    8598:	e8 e7 fd ff ff       	call   8384 <put_chars>
    859d:	83 c4 10             	add    $0x10,%esp
    85a0:	8b 83 20 00 00 00    	mov    0x20(%ebx),%eax
    85a6:	83 c0 01             	add    $0x1,%eax
    85a9:	89 83 20 00 00 00    	mov    %eax,0x20(%ebx)
    85af:	c7 83 24 00 00 00 04 	movl   $0x4,0x24(%ebx)
    85b6:	00 00 00 
    85b9:	8d 83 24 00 00 00    	lea    0x24(%ebx),%eax
    85bf:	50                   	push   %eax
    85c0:	8d 83 20 00 00 00    	lea    0x20(%ebx),%eax
    85c6:	50                   	push   %eax
    85c7:	6a 07                	push   $0x7
    85c9:	ff 75 f4             	pushl  -0xc(%ebp)
    85cc:	e8 b3 fd ff ff       	call   8384 <put_chars>
    85d1:	83 c4 10             	add    $0x10,%esp
    85d4:	8b 83 20 00 00 00    	mov    0x20(%ebx),%eax
    85da:	83 c0 01             	add    $0x1,%eax
    85dd:	89 83 20 00 00 00    	mov    %eax,0x20(%ebx)
    85e3:	c7 83 24 00 00 00 04 	movl   $0x4,0x24(%ebx)
    85ea:	00 00 00 
    85ed:	8b 83 fc ff ff ff    	mov    -0x4(%ebx),%eax
    85f3:	8d 93 24 00 00 00    	lea    0x24(%ebx),%edx
    85f9:	52                   	push   %edx
    85fa:	8d 93 20 00 00 00    	lea    0x20(%ebx),%edx
    8600:	52                   	push   %edx
    8601:	6a 07                	push   $0x7
    8603:	50                   	push   %eax
    8604:	e8 7b fd ff ff       	call   8384 <put_chars>
    8609:	83 c4 10             	add    $0x10,%esp
    860c:	e8 f7 fb ff ff       	call   8208 <tskEnd>
    8611:	90                   	nop
    8612:	8b 5d fc             	mov    -0x4(%ebp),%ebx
    8615:	c9                   	leave  
    8616:	c3                   	ret    

00008617 <myTSK1>:
    8617:	55                   	push   %ebp
    8618:	89 e5                	mov    %esp,%ebp
    861a:	53                   	push   %ebx
    861b:	83 ec 14             	sub    $0x14,%esp
    861e:	e8 82 fc ff ff       	call   82a5 <__x86.get_pc_thunk.bx>
    8623:	81 c3 61 06 00 00    	add    $0x661,%ebx
    8629:	8d 83 e8 fc ff ff    	lea    -0x318(%ebx),%eax
    862f:	89 45 f4             	mov    %eax,-0xc(%ebp)
    8632:	c7 83 20 00 00 00 0c 	movl   $0xc,0x20(%ebx)
    8639:	00 00 00 
    863c:	c7 83 24 00 00 00 04 	movl   $0x4,0x24(%ebx)
    8643:	00 00 00 
    8646:	8b 83 fc ff ff ff    	mov    -0x4(%ebx),%eax
    864c:	8d 93 24 00 00 00    	lea    0x24(%ebx),%edx
    8652:	52                   	push   %edx
    8653:	8d 93 20 00 00 00    	lea    0x20(%ebx),%edx
    8659:	52                   	push   %edx
    865a:	6a 07                	push   $0x7
    865c:	50                   	push   %eax
    865d:	e8 22 fd ff ff       	call   8384 <put_chars>
    8662:	83 c4 10             	add    $0x10,%esp
    8665:	8b 83 20 00 00 00    	mov    0x20(%ebx),%eax
    866b:	83 c0 01             	add    $0x1,%eax
    866e:	89 83 20 00 00 00    	mov    %eax,0x20(%ebx)
    8674:	c7 83 24 00 00 00 04 	movl   $0x4,0x24(%ebx)
    867b:	00 00 00 
    867e:	8d 83 24 00 00 00    	lea    0x24(%ebx),%eax
    8684:	50                   	push   %eax
    8685:	8d 83 20 00 00 00    	lea    0x20(%ebx),%eax
    868b:	50                   	push   %eax
    868c:	6a 07                	push   $0x7
    868e:	ff 75 f4             	pushl  -0xc(%ebp)
    8691:	e8 ee fc ff ff       	call   8384 <put_chars>
    8696:	83 c4 10             	add    $0x10,%esp
    8699:	8b 83 20 00 00 00    	mov    0x20(%ebx),%eax
    869f:	83 c0 01             	add    $0x1,%eax
    86a2:	89 83 20 00 00 00    	mov    %eax,0x20(%ebx)
    86a8:	c7 83 24 00 00 00 04 	movl   $0x4,0x24(%ebx)
    86af:	00 00 00 
    86b2:	8b 83 fc ff ff ff    	mov    -0x4(%ebx),%eax
    86b8:	8d 93 24 00 00 00    	lea    0x24(%ebx),%edx
    86be:	52                   	push   %edx
    86bf:	8d 93 20 00 00 00    	lea    0x20(%ebx),%edx
    86c5:	52                   	push   %edx
    86c6:	6a 07                	push   $0x7
    86c8:	50                   	push   %eax
    86c9:	e8 b6 fc ff ff       	call   8384 <put_chars>
    86ce:	83 c4 10             	add    $0x10,%esp
    86d1:	e8 32 fb ff ff       	call   8208 <tskEnd>
    86d6:	90                   	nop
    86d7:	8b 5d fc             	mov    -0x4(%ebp),%ebx
    86da:	c9                   	leave  
    86db:	c3                   	ret    

000086dc <myTSK2>:
    86dc:	55                   	push   %ebp
    86dd:	89 e5                	mov    %esp,%ebp
    86df:	53                   	push   %ebx
    86e0:	83 ec 14             	sub    $0x14,%esp
    86e3:	e8 bd fb ff ff       	call   82a5 <__x86.get_pc_thunk.bx>
    86e8:	81 c3 9c 05 00 00    	add    $0x59c,%ebx
    86ee:	8d 83 0c fd ff ff    	lea    -0x2f4(%ebx),%eax
    86f4:	89 45 f4             	mov    %eax,-0xc(%ebp)
    86f7:	c7 83 20 00 00 00 10 	movl   $0x10,0x20(%ebx)
    86fe:	00 00 00 
    8701:	c7 83 24 00 00 00 04 	movl   $0x4,0x24(%ebx)
    8708:	00 00 00 
    870b:	8b 83 fc ff ff ff    	mov    -0x4(%ebx),%eax
    8711:	8d 93 24 00 00 00    	lea    0x24(%ebx),%edx
    8717:	52                   	push   %edx
    8718:	8d 93 20 00 00 00    	lea    0x20(%ebx),%edx
    871e:	52                   	push   %edx
    871f:	6a 07                	push   $0x7
    8721:	50                   	push   %eax
    8722:	e8 5d fc ff ff       	call   8384 <put_chars>
    8727:	83 c4 10             	add    $0x10,%esp
    872a:	8b 83 20 00 00 00    	mov    0x20(%ebx),%eax
    8730:	83 c0 01             	add    $0x1,%eax
    8733:	89 83 20 00 00 00    	mov    %eax,0x20(%ebx)
    8739:	c7 83 24 00 00 00 04 	movl   $0x4,0x24(%ebx)
    8740:	00 00 00 
    8743:	8d 83 24 00 00 00    	lea    0x24(%ebx),%eax
    8749:	50                   	push   %eax
    874a:	8d 83 20 00 00 00    	lea    0x20(%ebx),%eax
    8750:	50                   	push   %eax
    8751:	6a 07                	push   $0x7
    8753:	ff 75 f4             	pushl  -0xc(%ebp)
    8756:	e8 29 fc ff ff       	call   8384 <put_chars>
    875b:	83 c4 10             	add    $0x10,%esp
    875e:	8b 83 20 00 00 00    	mov    0x20(%ebx),%eax
    8764:	83 c0 01             	add    $0x1,%eax
    8767:	89 83 20 00 00 00    	mov    %eax,0x20(%ebx)
    876d:	c7 83 24 00 00 00 04 	movl   $0x4,0x24(%ebx)
    8774:	00 00 00 
    8777:	8b 83 fc ff ff ff    	mov    -0x4(%ebx),%eax
    877d:	8d 93 24 00 00 00    	lea    0x24(%ebx),%edx
    8783:	52                   	push   %edx
    8784:	8d 93 20 00 00 00    	lea    0x20(%ebx),%edx
    878a:	52                   	push   %edx
    878b:	6a 07                	push   $0x7
    878d:	50                   	push   %eax
    878e:	e8 f1 fb ff ff       	call   8384 <put_chars>
    8793:	83 c4 10             	add    $0x10,%esp
    8796:	e8 6d fa ff ff       	call   8208 <tskEnd>
    879b:	90                   	nop
    879c:	8b 5d fc             	mov    -0x4(%ebp),%ebx
    879f:	c9                   	leave  
    87a0:	c3                   	ret    

000087a1 <initTskBody>:
    87a1:	55                   	push   %ebp
    87a2:	89 e5                	mov    %esp,%ebp
    87a4:	53                   	push   %ebx
    87a5:	83 ec 14             	sub    $0x14,%esp
    87a8:	e8 f8 fa ff ff       	call   82a5 <__x86.get_pc_thunk.bx>
    87ad:	81 c3 d7 04 00 00    	add    $0x4d7,%ebx
    87b3:	8d 83 30 fd ff ff    	lea    -0x2d0(%ebx),%eax
    87b9:	89 45 f4             	mov    %eax,-0xc(%ebp)
    87bc:	c7 83 20 00 00 00 04 	movl   $0x4,0x20(%ebx)
    87c3:	00 00 00 
    87c6:	c7 83 24 00 00 00 04 	movl   $0x4,0x24(%ebx)
    87cd:	00 00 00 
    87d0:	8b 83 fc ff ff ff    	mov    -0x4(%ebx),%eax
    87d6:	8d 93 24 00 00 00    	lea    0x24(%ebx),%edx
    87dc:	52                   	push   %edx
    87dd:	8d 93 20 00 00 00    	lea    0x20(%ebx),%edx
    87e3:	52                   	push   %edx
    87e4:	6a 07                	push   $0x7
    87e6:	50                   	push   %eax
    87e7:	e8 98 fb ff ff       	call   8384 <put_chars>
    87ec:	83 c4 10             	add    $0x10,%esp
    87ef:	8b 83 20 00 00 00    	mov    0x20(%ebx),%eax
    87f5:	83 c0 01             	add    $0x1,%eax
    87f8:	89 83 20 00 00 00    	mov    %eax,0x20(%ebx)
    87fe:	c7 83 24 00 00 00 04 	movl   $0x4,0x24(%ebx)
    8805:	00 00 00 
    8808:	8d 83 24 00 00 00    	lea    0x24(%ebx),%eax
    880e:	50                   	push   %eax
    880f:	8d 83 20 00 00 00    	lea    0x20(%ebx),%eax
    8815:	50                   	push   %eax
    8816:	6a 07                	push   $0x7
    8818:	ff 75 f4             	pushl  -0xc(%ebp)
    881b:	e8 64 fb ff ff       	call   8384 <put_chars>
    8820:	83 c4 10             	add    $0x10,%esp
    8823:	8b 83 20 00 00 00    	mov    0x20(%ebx),%eax
    8829:	83 c0 01             	add    $0x1,%eax
    882c:	89 83 20 00 00 00    	mov    %eax,0x20(%ebx)
    8832:	c7 83 24 00 00 00 04 	movl   $0x4,0x24(%ebx)
    8839:	00 00 00 
    883c:	8b 83 fc ff ff ff    	mov    -0x4(%ebx),%eax
    8842:	8d 93 24 00 00 00    	lea    0x24(%ebx),%edx
    8848:	52                   	push   %edx
    8849:	8d 93 20 00 00 00    	lea    0x20(%ebx),%edx
    884f:	52                   	push   %edx
    8850:	6a 07                	push   $0x7
    8852:	50                   	push   %eax
    8853:	e8 2c fb ff ff       	call   8384 <put_chars>
    8858:	83 c4 10             	add    $0x10,%esp
    885b:	83 ec 0c             	sub    $0xc,%esp
    885e:	8d 83 ce f8 ff ff    	lea    -0x732(%ebx),%eax
    8864:	50                   	push   %eax
    8865:	e8 12 f8 ff ff       	call   807c <createTsk>
    886a:	83 c4 10             	add    $0x10,%esp
    886d:	83 ec 0c             	sub    $0xc,%esp
    8870:	8d 83 93 f9 ff ff    	lea    -0x66d(%ebx),%eax
    8876:	50                   	push   %eax
    8877:	e8 00 f8 ff ff       	call   807c <createTsk>
    887c:	83 c4 10             	add    $0x10,%esp
    887f:	83 ec 0c             	sub    $0xc,%esp
    8882:	8d 83 58 fa ff ff    	lea    -0x5a8(%ebx),%eax
    8888:	50                   	push   %eax
    8889:	e8 ee f7 ff ff       	call   807c <createTsk>
    888e:	83 c4 10             	add    $0x10,%esp
    8891:	e8 72 f9 ff ff       	call   8208 <tskEnd>
    8896:	90                   	nop
    8897:	8b 5d fc             	mov    -0x4(%ebp),%ebx
    889a:	c9                   	leave  
    889b:	c3                   	ret    
